; Function Attrs: inlinehint mustprogress nounwind willreturn uwtable
define internal fastcc void @Vec_IntFreeP(ptr noundef nonnull captures(none) %0) unnamed_addr #2 {
  %2 = load ptr, ptr %0, align 8, !tbaa !39
  %3 = icmp eq ptr %2, null
  br i1 %3, label %11, label %4

4:                                                ; preds = %1
  %5 = getelementptr inbounds nuw i8, ptr %2, i64 8
  %6 = load ptr, ptr %5, align 8, !tbaa !11
  %.not = icmp eq ptr %6, null
  br i1 %.not, label %9, label %.thread

.thread:                                          ; preds = %4
  tail call void @free(ptr noundef nonnull %6) #11
  %7 = load ptr, ptr %0, align 8, !tbaa !39
  %8 = getelementptr inbounds nuw i8, ptr %7, i64 8
  store ptr null, ptr %8, align 8, !tbaa !11
  br label %9

9:                                                ; preds = %4, %.thread
  %10 = phi ptr [ %7, %.thread ], [ %2, %4 ]
  tail call void @free(ptr noundef nonnull %10) #11
  store ptr null, ptr %0, align 8, !tbaa !39
  br label %11

11:                                               ; preds = %9, %1
  ret void
}